target datalayout = "e-m:e-p270:32:32-p271:32:32-p272:64:64-i64:64-i128:128-f80:128-n8:16:32:64-S128"
target triple = "x86_64-pc-linux-gnu"

%struct._ccm_session_data = type { i32, ptr, ptr, i32, [8 x i8], i8, i8, i8, i32, i32 }

; Function Attrs: null_pointer_is_valid sspstrong uwtable
define internal zeroext i1 @dof_sessions_destroy_cb(ptr noundef %0, i32 noundef %1, ptr noundef %2) #0 {
  %4 = alloca ptr, align 8
  %5 = alloca i32, align 4
  %6 = alloca ptr, align 8
  %7 = alloca ptr, align 8
  store ptr %0, ptr %4, align 8
  store i32 %1, ptr %5, align 4
  store ptr %2, ptr %6, align 8
  call void @llvm.lifetime.start.p0(i64 8, ptr %7) #19
  %8 = load ptr, ptr %6, align 8
  store ptr %8, ptr %7, align 8
  %9 = load ptr, ptr %7, align 8
  %10 = getelementptr inbounds nuw %struct._ccm_session_data, ptr %9, i32 0, i32 1
  %11 = load ptr, ptr %10, align 8
  call void @gcry_cipher_close(ptr noundef %11)
  %12 = load ptr, ptr %7, align 8
  %13 = getelementptr inbounds nuw %struct._ccm_session_data, ptr %12, i32 0, i32 2
  %14 = load ptr, ptr %13, align 8
  %15 = icmp ne ptr %14, null
  br i1 %15, label %16, label %20

16:                                               ; preds = %3
  %17 = load ptr, ptr %7, align 8
  %18 = getelementptr inbounds nuw %struct._ccm_session_data, ptr %17, i32 0, i32 2
  %19 = load ptr, ptr %18, align 8
  call void @g_hash_table_destroy(ptr noundef %19)
  br label %20

20:                                               ; preds = %16, %3
  call void @llvm.lifetime.end.p0(i64 8, ptr %7) #19
  ret i1 false
}