; Function Attrs: null_pointer_is_valid sspstrong uwtable
define internal noundef zeroext i1 @dof_sessions_destroy_cb(ptr readnone captures(none) %0, i32 %1, ptr noundef readonly captures(none) %2) #0 {
  %4 = getelementptr inbounds nuw i8, ptr %2, i64 8
  %5 = load ptr, ptr %4, align 8
  tail call void @gcry_cipher_close(ptr noundef %5)
  %6 = getelementptr inbounds nuw i8, ptr %2, i64 16
  %7 = load ptr, ptr %6, align 8
  %.not = icmp eq ptr %7, null
  br i1 %.not, label %9, label %8

8:                                                ; preds = %3
  tail call void @g_hash_table_destroy(ptr noundef nonnull %7)
  br label %9

9:                                                ; preds = %8, %3
  ret i1 false
}